; Function Attrs: mustprogress uwtable
define noundef nonnull align 8 dereferenceable(8) ptr @_ZN8proxygenlsERSoNS_28HTTPTransactionIngressSMData5EventE(ptr noundef nonnull returned align 8 dereferenceable(8) %os, i8 noundef zeroext %e) local_unnamed_addr #0 personality ptr @__gxx_personality_v0 {
entry:
  %ref.tmp20 = alloca %"class.google::LogMessageFatal", align 8
  switch i8 %e, label %sw.epilog [
    i8 0, label %sw.epilog.sink.split
    i8 1, label %sw.bb1
    i8 2, label %sw.bb3
    i8 3, label %sw.bb5
    i8 4, label %sw.bb7
    i8 5, label %sw.bb9
    i8 6, label %sw.bb11
    i8 7, label %sw.bb13
    i8 8, label %sw.bb15
    i8 9, label %sw.bb17
    i8 10, label %sw.bb19
  ]

sw.bb1:                                           ; preds = %entry
  br label %sw.epilog.sink.split

sw.bb3:                                           ; preds = %entry
  br label %sw.epilog.sink.split

sw.bb5:                                           ; preds = %entry
  br label %sw.epilog.sink.split

sw.bb7:                                           ; preds = %entry
  br label %sw.epilog.sink.split

sw.bb9:                                           ; preds = %entry
  br label %sw.epilog.sink.split

sw.bb11:                                          ; preds = %entry
  br label %sw.epilog.sink.split

sw.bb13:                                          ; preds = %entry
  br label %sw.epilog.sink.split

sw.bb15:                                          ; preds = %entry
  br label %sw.epilog.sink.split

sw.bb17:                                          ; preds = %entry
  br label %sw.epilog.sink.split

sw.bb19:                                          ; preds = %entry
  call void @_ZN6google15LogMessageFatalC1EPKci(ptr noundef nonnull align 8 dereferenceable(96) %ref.tmp20, ptr noundef nonnull @.str.11, i32 noundef 171)
  %call21 = invoke noundef nonnull align 8 dereferenceable(8) ptr @_ZN6google10LogMessage6streamEv(ptr noundef nonnull align 8 dereferenceable(96) %ref.tmp20)
          to label %invoke.cont unwind label %lpad

invoke.cont:                                      ; preds = %sw.bb19
  %call23 = invoke noundef nonnull align 8 dereferenceable(8) ptr @_ZStlsISt11char_traitsIcEERSt13basic_ostreamIcT_ES5_PKc(ptr noundef nonnull align 8 dereferenceable(8) %call21, ptr noundef nonnull @.str.12)
          to label %invoke.cont22 unwind label %lpad

invoke.cont22:                                    ; preds = %invoke.cont
  %call25 = invoke noundef nonnull align 8 dereferenceable(8) ptr @_ZStlsISt11char_traitsIcEERSt13basic_ostreamIcT_ES5_PKc(ptr noundef nonnull align 8 dereferenceable(8) %call23, ptr noundef nonnull @.str.24)
          to label %invoke.cont24 unwind label %lpad

invoke.cont24:                                    ; preds = %invoke.cont22
  call void @_ZN6google15LogMessageFatalD1Ev(ptr noundef nonnull align 8 dereferenceable(96) %ref.tmp20) #16
  unreachable

lpad:                                             ; preds = %invoke.cont22, %invoke.cont, %sw.bb19
  %0 = landingpad { ptr, i32 }
          cleanup
  call void @_ZN6google15LogMessageFatalD1Ev(ptr noundef nonnull align 8 dereferenceable(96) %ref.tmp20) #16
  unreachable

sw.epilog.sink.split:                             ; preds = %entry, %sw.bb1, %sw.bb3, %sw.bb5, %sw.bb7, %sw.bb9, %sw.bb11, %sw.bb13, %sw.bb15, %sw.bb17
  %.str.23.sink = phi ptr [ @.str.23, %sw.bb17 ], [ @.str.22, %sw.bb15 ], [ @.str.21, %sw.bb13 ], [ @.str.20, %sw.bb11 ], [ @.str.19, %sw.bb9 ], [ @.str.18, %sw.bb7 ], [ @.str.17, %sw.bb5 ], [ @.str.16, %sw.bb3 ], [ @.str.15, %sw.bb1 ], [ @.str.14, %entry ]
  %call18 = tail call noundef nonnull align 8 dereferenceable(8) ptr @_ZStlsISt11char_traitsIcEERSt13basic_ostreamIcT_ES5_PKc(ptr noundef nonnull align 8 dereferenceable(8) %os, ptr noundef nonnull %.str.23.sink)
  br label %sw.epilog

sw.epilog:                                        ; preds = %sw.epilog.sink.split, %entry
  ret ptr %os
}